target datalayout = "e-m:e-p270:32:32-p271:32:32-p272:64:64-i64:64-i128:128-f80:128-n8:16:32:64-S128"
target triple = "x86_64-pc-linux-gnu"

%struct.CRYPTO_REF_COUNT = type { i32 }
%struct.bio_st = type { ptr, ptr, ptr, ptr, ptr, i32, i32, i32, i32, i32, ptr, ptr, ptr, %struct.CRYPTO_REF_COUNT, i64, i64, %struct.crypto_ex_data_st }
%struct.crypto_ex_data_st = type { ptr, ptr }
%struct.bio_method_st = type { i32, ptr, ptr, ptr, ptr, ptr, ptr, ptr, ptr, ptr, ptr, ptr, ptr, ptr }

@.str = private unnamed_addr constant [32 x i8] c"../openssl/crypto/bio/bio_lib.c\00", align 1
@__func__.BIO_new_ex = private unnamed_addr constant [11 x i8] c"BIO_new_ex\00", align 1

; Function Attrs: inlinehint nounwind uwtable
define internal void @CRYPTO_FREE_REF(ptr noundef %0) #3 {
  %2 = alloca ptr, align 8
  store ptr %0, ptr %2, align 8, !tbaa !25
  ret void
}

; Function Attrs: inlinehint nounwind uwtable
define internal i32 @CRYPTO_NEW_REF(ptr noundef %0, i32 noundef %1) #3 {
  %3 = alloca ptr, align 8
  %4 = alloca i32, align 4
  store ptr %0, ptr %3, align 8, !tbaa !25
  store i32 %1, ptr %4, align 4, !tbaa !26
  %5 = load i32, ptr %4, align 4, !tbaa !26
  %6 = load ptr, ptr %3, align 8, !tbaa !25
  %7 = getelementptr inbounds nuw %struct.CRYPTO_REF_COUNT, ptr %6, i32 0, i32 0
  store atomic i32 %5, ptr %7 seq_cst, align 4, !tbaa !27
  ret i32 1
}

; Function Attrs: nounwind uwtable
define ptr @BIO_new_ex(ptr noundef %0, ptr noundef %1) #0 {
  %3 = alloca ptr, align 8
  %4 = alloca ptr, align 8
  %5 = alloca ptr, align 8
  %6 = alloca ptr, align 8
  %7 = alloca i32, align 4
  store ptr %0, ptr %4, align 8, !tbaa !3
  store ptr %1, ptr %5, align 8, !tbaa !8
  call void @llvm.lifetime.start.p0(i64 8, ptr %6) #5
  %8 = call noalias ptr @CRYPTO_zalloc(i64 noundef 128, ptr noundef @.str, i32 noundef 83)
  store ptr %8, ptr %6, align 8, !tbaa !10
  %9 = load ptr, ptr %6, align 8, !tbaa !10
  %10 = icmp eq ptr %9, null
  br i1 %10, label %11, label %12

11:                                               ; preds = %2
  store ptr null, ptr %3, align 8
  store i32 1, ptr %7, align 4
  br label %63

12:                                               ; preds = %2
  %13 = load ptr, ptr %4, align 8, !tbaa !3
  %14 = load ptr, ptr %6, align 8, !tbaa !10
  %15 = getelementptr inbounds nuw %struct.bio_st, ptr %14, i32 0, i32 0
  store ptr %13, ptr %15, align 8, !tbaa !12
  %16 = load ptr, ptr %5, align 8, !tbaa !8
  %17 = load ptr, ptr %6, align 8, !tbaa !10
  %18 = getelementptr inbounds nuw %struct.bio_st, ptr %17, i32 0, i32 1
  store ptr %16, ptr %18, align 8, !tbaa !20
  %19 = load ptr, ptr %6, align 8, !tbaa !10
  %20 = getelementptr inbounds nuw %struct.bio_st, ptr %19, i32 0, i32 6
  store i32 1, ptr %20, align 4, !tbaa !21
  %21 = load ptr, ptr %6, align 8, !tbaa !10
  %22 = getelementptr inbounds nuw %struct.bio_st, ptr %21, i32 0, i32 13
  %23 = call i32 @CRYPTO_NEW_REF(ptr noundef %22, i32 noundef 1)
  %24 = icmp ne i32 %23, 0
  br i1 %24, label %26, label %25

25:                                               ; preds = %12
  br label %59

26:                                               ; preds = %12
  %27 = load ptr, ptr %6, align 8, !tbaa !10
  %28 = load ptr, ptr %6, align 8, !tbaa !10
  %29 = getelementptr inbounds nuw %struct.bio_st, ptr %28, i32 0, i32 16
  %30 = call i32 @CRYPTO_new_ex_data(i32 noundef 12, ptr noundef %27, ptr noundef %29)
  %31 = icmp ne i32 %30, 0
  br i1 %31, label %33, label %32

32:                                               ; preds = %26
  br label %59

33:                                               ; preds = %26
  %34 = load ptr, ptr %5, align 8, !tbaa !8
  %35 = getelementptr inbounds nuw %struct.bio_method_st, ptr %34, i32 0, i32 9
  %36 = load ptr, ptr %35, align 8, !tbaa !22
  %37 = icmp ne ptr %36, null
  br i1 %37, label %38, label %49

38:                                               ; preds = %33
  %39 = load ptr, ptr %5, align 8, !tbaa !8
  %40 = getelementptr inbounds nuw %struct.bio_method_st, ptr %39, i32 0, i32 9
  %41 = load ptr, ptr %40, align 8, !tbaa !22
  %42 = load ptr, ptr %6, align 8, !tbaa !10
  %43 = call i32 %41(ptr noundef %42)
  %44 = icmp ne i32 %43, 0
  br i1 %44, label %49, label %45

45:                                               ; preds = %38
  call void @ERR_new()
  call void @ERR_set_debug(ptr noundef @.str, i32 noundef 99, ptr noundef @__func__.BIO_new_ex)
  call void (i32, i32, ptr, ...) @ERR_set_error(i32 noundef 32, i32 noundef 786693, ptr noundef null)
  %46 = load ptr, ptr %6, align 8, !tbaa !10
  %47 = load ptr, ptr %6, align 8, !tbaa !10
  %48 = getelementptr inbounds nuw %struct.bio_st, ptr %47, i32 0, i32 16
  call void @CRYPTO_free_ex_data(i32 noundef 12, ptr noundef %46, ptr noundef %48)
  br label %59

49:                                               ; preds = %38, %33
  %50 = load ptr, ptr %5, align 8, !tbaa !8
  %51 = getelementptr inbounds nuw %struct.bio_method_st, ptr %50, i32 0, i32 9
  %52 = load ptr, ptr %51, align 8, !tbaa !22
  %53 = icmp eq ptr %52, null
  br i1 %53, label %54, label %57

54:                                               ; preds = %49
  %55 = load ptr, ptr %6, align 8, !tbaa !10
  %56 = getelementptr inbounds nuw %struct.bio_st, ptr %55, i32 0, i32 5
  store i32 1, ptr %56, align 8, !tbaa !24
  br label %57

57:                                               ; preds = %54, %49
  %58 = load ptr, ptr %6, align 8, !tbaa !10
  store ptr %58, ptr %3, align 8
  store i32 1, ptr %7, align 4
  br label %63

59:                                               ; preds = %45, %32, %25
  %60 = load ptr, ptr %6, align 8, !tbaa !10
  %61 = getelementptr inbounds nuw %struct.bio_st, ptr %60, i32 0, i32 13
  call void @CRYPTO_FREE_REF(ptr noundef %61)
  %62 = load ptr, ptr %6, align 8, !tbaa !10
  call void @CRYPTO_free(ptr noundef %62, ptr noundef @.str, i32 noundef 110)
  store ptr null, ptr %3, align 8
  store i32 1, ptr %7, align 4
  br label %63

63:                                               ; preds = %59, %57, %11
  call void @llvm.lifetime.end.p0(i64 8, ptr %6) #5
  %64 = load ptr, ptr %3, align 8
  ret ptr %64
}