; Function Attrs: nounwind uwtable
define ptr @BIO_new_ex(ptr noundef %0, ptr noundef %1) local_unnamed_addr #0 {
  %3 = tail call noalias ptr @CRYPTO_zalloc(i64 noundef 128, ptr noundef nonnull @.str, i32 noundef 83) #14
  %4 = icmp eq ptr %3, null
  br i1 %4, label %21, label %5

5:                                                ; preds = %2
  store ptr %0, ptr %3, align 8, !tbaa !3
  %6 = getelementptr inbounds nuw i8, ptr %3, i64 8
  store ptr %1, ptr %6, align 8, !tbaa !17
  %7 = getelementptr inbounds nuw i8, ptr %3, i64 44
  store i32 1, ptr %7, align 4, !tbaa !18
  %8 = getelementptr inbounds nuw i8, ptr %3, i64 88
  store atomic i32 1, ptr %8 seq_cst, align 4, !tbaa !19
  %9 = getelementptr inbounds nuw i8, ptr %3, i64 112
  %10 = tail call i32 @CRYPTO_new_ex_data(i32 noundef 12, ptr noundef nonnull %3, ptr noundef nonnull %9) #14
  %.not = icmp eq i32 %10, 0
  br i1 %.not, label %20, label %11

11:                                               ; preds = %5
  %12 = getelementptr inbounds nuw i8, ptr %1, i64 72
  %13 = load ptr, ptr %12, align 8, !tbaa !20
  %.not22 = icmp eq ptr %13, null
  br i1 %.not22, label %.thread, label %14

14:                                               ; preds = %11
  %15 = tail call i32 %13(ptr noundef nonnull %3) #14
  %.not23 = icmp eq i32 %15, 0
  br i1 %.not23, label %16, label %17

16:                                               ; preds = %14
  tail call void @ERR_new() #14
  tail call void @ERR_set_debug(ptr noundef nonnull @.str, i32 noundef 99, ptr noundef nonnull @__func__.BIO_new_ex) #14
  tail call void (i32, i32, ptr, ...) @ERR_set_error(i32 noundef 32, i32 noundef 786693, ptr noundef null) #14
  tail call void @CRYPTO_free_ex_data(i32 noundef 12, ptr noundef nonnull %3, ptr noundef nonnull %9) #14
  br label %20

17:                                               ; preds = %14
  %.pr = load ptr, ptr %12, align 8, !tbaa !20
  %18 = icmp eq ptr %.pr, null
  br i1 %18, label %.thread, label %21

.thread:                                          ; preds = %11, %17
  %19 = getelementptr inbounds nuw i8, ptr %3, i64 40
  store i32 1, ptr %19, align 8, !tbaa !22
  br label %21

20:                                               ; preds = %5, %16
  tail call void @CRYPTO_free(ptr noundef nonnull %3, ptr noundef nonnull @.str, i32 noundef 110) #14
  br label %21

21:                                               ; preds = %17, %.thread, %2, %20
  %.0 = phi ptr [ null, %20 ], [ null, %2 ], [ %3, %.thread ], [ %3, %17 ]
  ret ptr %.0
}